; Function Attrs: mustprogress uwtable
define void @_ZNK4cvc58internal9LogicInfo15getUnlockedCopyEv(ptr noalias nonnull sret(%"class.cvc5::internal::LogicInfo") align 8 %agg.result, ptr noundef nonnull align 8 dereferenceable(88) %this) local_unnamed_addr #3 align 2 personality ptr @__gxx_personality_v0 {
entry:
  %d_locked = getelementptr inbounds i8, ptr %this, i64 87
  %0 = load i8, ptr %d_locked, align 1
  %1 = and i8 %0, 1
  %tobool.not = icmp eq i8 %1, 0
  tail call void @_ZNSt7__cxx1112basic_stringIcSt11char_traitsIcESaIcEEC1ERKS4_(ptr noundef nonnull align 8 dereferenceable(32) %agg.result, ptr noundef nonnull align 8 dereferenceable(32) %this)
  %d_theories.i1 = getelementptr inbounds i8, ptr %agg.result, i64 32
  %d_theories3.i2 = getelementptr inbounds i8, ptr %this, i64 32
  br i1 %tobool.not, label %if.else, label %if.then

if.then:                                          ; preds = %entry
  invoke void @_ZNSt6vectorIbSaIbEEC2ERKS1_(ptr noundef nonnull align 8 dereferenceable(40) %d_theories.i1, ptr noundef nonnull align 8 dereferenceable(40) %d_theories3.i2)
          to label %_ZN4cvc58internal9LogicInfoC2ERKS1_.exit unwind label %lpad.i

common.resume:                                    ; preds = %lpad.i3, %lpad.i
  %common.resume.op = phi { ptr, i32 } [ %2, %lpad.i ], [ %3, %lpad.i3 ]
  tail call void @_ZNSt7__cxx1112basic_stringIcSt11char_traitsIcESaIcEED1Ev(ptr noundef nonnull align 8 dereferenceable(32) %agg.result) #14
  resume { ptr, i32 } %common.resume.op

lpad.i:                                           ; preds = %if.then
  %2 = landingpad { ptr, i32 }
          cleanup
  br label %common.resume

_ZN4cvc58internal9LogicInfoC2ERKS1_.exit:         ; preds = %if.then
  %d_sharingTheories.i = getelementptr inbounds i8, ptr %agg.result, i64 72
  %d_sharingTheories4.i = getelementptr inbounds i8, ptr %this, i64 72
  tail call void @llvm.memcpy.p0.p0.i64(ptr noundef nonnull align 8 dereferenceable(16) %d_sharingTheories.i, ptr noundef nonnull align 8 dereferenceable(16) %d_sharingTheories4.i, i64 16, i1 false)
  %d_locked2 = getelementptr inbounds i8, ptr %agg.result, i64 87
  store i8 0, ptr %d_locked2, align 1
  br label %return

if.else:                                          ; preds = %entry
  invoke void @_ZNSt6vectorIbSaIbEEC2ERKS1_(ptr noundef nonnull align 8 dereferenceable(40) %d_theories.i1, ptr noundef nonnull align 8 dereferenceable(40) %d_theories3.i2)
          to label %_ZN4cvc58internal9LogicInfoC2ERKS1_.exit6 unwind label %lpad.i3

lpad.i3:                                          ; preds = %if.else
  %3 = landingpad { ptr, i32 }
          cleanup
  br label %common.resume

_ZN4cvc58internal9LogicInfoC2ERKS1_.exit6:        ; preds = %if.else
  %d_sharingTheories.i4 = getelementptr inbounds i8, ptr %agg.result, i64 72
  %d_sharingTheories4.i5 = getelementptr inbounds i8, ptr %this, i64 72
  tail call void @llvm.memcpy.p0.p0.i64(ptr noundef nonnull align 8 dereferenceable(16) %d_sharingTheories.i4, ptr noundef nonnull align 8 dereferenceable(16) %d_sharingTheories4.i5, i64 16, i1 false)
  br label %return

return:                                           ; preds = %_ZN4cvc58internal9LogicInfoC2ERKS1_.exit, %_ZN4cvc58internal9LogicInfoC2ERKS1_.exit6
  ret void
}